target datalayout = "e-m:e-p270:32:32-p271:32:32-p272:64:64-i64:64-i128:128-f80:128-n8:16:32:64-S128"
target triple = "x86_64-pc-linux-gnu"

%struct.If_Cut_t_ = type <{ float, float, float, float, i32, i32, i32, i64, [0 x i32] }>
%struct.If_Man_t_ = type { ptr, ptr, ptr, ptr, ptr, ptr, ptr, ptr, [5 x i32], i32, float, float, float, float, i32, float, i32, i32, [4 x ptr], ptr, i32, i32, i32, ptr, [3 x [32 x i32]], i32, i32, i32, ptr, ptr, ptr, ptr, ptr, ptr, ptr, i32, i32, i32, [16 x i32], i32, i32, i32, i32, ptr, ptr, ptr, ptr, ptr, i32, i32, [32 x i32], [32 x i32], i32, i32, i32, i32, ptr, [16 x ptr], [16 x ptr], [16 x ptr], [16 x ptr], [16 x ptr], [16 x ptr], [16 x ptr], ptr, ptr, ptr, ptr, [32 x i8], i32, i32, i32, [6 x i64], [2 x i32], [2 x i32], ptr, [15 x i32], ptr, ptr, ptr, [16 x i32], ptr, ptr, ptr, ptr, [2 x i32], [2 x i32], [2 x ptr], ptr }
%struct.Vec_Mem_t_ = type { i32, i32, i32, i32, i32, i32, ptr, ptr, ptr }
%struct.Vec_Int_t_ = type { i32, i32, ptr }

@Vec_MemHashKey.s_Primes = internal global [8 x i32] [i32 1699, i32 4177, i32 5147, i32 5647, i32 6343, i32 7103, i32 7873, i32 8147], align 16

; Function Attrs: inlinehint nounwind uwtable
define internal i32 @Vec_IntSize(ptr noundef %0) #2 {
  %2 = alloca ptr, align 8
  store ptr %0, ptr %2, align 8, !tbaa !64
  %3 = load ptr, ptr %2, align 8, !tbaa !64
  %4 = getelementptr inbounds nuw %struct.Vec_Int_t_, ptr %3, i32 0, i32 1
  %5 = load i32, ptr %4, align 4, !tbaa !83
  ret i32 %5
}

; Function Attrs: inlinehint nounwind uwtable
define internal ptr @Vec_IntEntryP(ptr noundef %0, i32 noundef %1) #2 {
  %3 = alloca ptr, align 8
  %4 = alloca i32, align 4
  store ptr %0, ptr %3, align 8, !tbaa !64
  store i32 %1, ptr %4, align 4, !tbaa !8
  %5 = load ptr, ptr %3, align 8, !tbaa !64
  %6 = getelementptr inbounds nuw %struct.Vec_Int_t_, ptr %5, i32 0, i32 2
  %7 = load ptr, ptr %6, align 8, !tbaa !82
  %8 = load i32, ptr %4, align 4, !tbaa !8
  %9 = sext i32 %8 to i64
  %10 = getelementptr inbounds i32, ptr %7, i64 %9
  ret ptr %10
}

; Function Attrs: inlinehint nounwind uwtable
define internal i32 @Vec_MemHashKey(ptr noundef %0, ptr noundef %1) #2 {
  %3 = alloca ptr, align 8
  %4 = alloca ptr, align 8
  %5 = alloca i32, align 4
  %6 = alloca i32, align 4
  %7 = alloca ptr, align 8
  %8 = alloca i32, align 4
  store ptr %0, ptr %3, align 8, !tbaa !33
  store ptr %1, ptr %4, align 8, !tbaa !3
  call void @llvm.lifetime.start.p0(i64 4, ptr %5) #11
  call void @llvm.lifetime.start.p0(i64 4, ptr %6) #11
  %9 = load ptr, ptr %3, align 8, !tbaa !33
  %10 = getelementptr inbounds nuw %struct.Vec_Mem_t_, ptr %9, i32 0, i32 0
  %11 = load i32, ptr %10, align 8, !tbaa !70
  %12 = mul nsw i32 2, %11
  store i32 %12, ptr %6, align 4, !tbaa !8
  call void @llvm.lifetime.start.p0(i64 8, ptr %7) #11
  %13 = load ptr, ptr %4, align 8, !tbaa !3
  store ptr %13, ptr %7, align 8, !tbaa !12
  call void @llvm.lifetime.start.p0(i64 4, ptr %8) #11
  store i32 0, ptr %8, align 4, !tbaa !8
  store i32 0, ptr %5, align 4, !tbaa !8
  br label %14

14:                                               ; preds = %32, %2
  %15 = load i32, ptr %5, align 4, !tbaa !8
  %16 = load i32, ptr %6, align 4, !tbaa !8
  %17 = icmp slt i32 %15, %16
  br i1 %17, label %18, label %35

18:                                               ; preds = %14
  %19 = load ptr, ptr %7, align 8, !tbaa !12
  %20 = load i32, ptr %5, align 4, !tbaa !8
  %21 = sext i32 %20 to i64
  %22 = getelementptr inbounds i32, ptr %19, i64 %21
  %23 = load i32, ptr %22, align 4, !tbaa !8
  %24 = load i32, ptr %5, align 4, !tbaa !8
  %25 = and i32 %24, 7
  %26 = sext i32 %25 to i64
  %27 = getelementptr inbounds [8 x i32], ptr @Vec_MemHashKey.s_Primes, i64 0, i64 %26
  %28 = load i32, ptr %27, align 4, !tbaa !8
  %29 = mul i32 %23, %28
  %30 = load i32, ptr %8, align 4, !tbaa !8
  %31 = add i32 %30, %29
  store i32 %31, ptr %8, align 4, !tbaa !8
  br label %32

32:                                               ; preds = %18
  %33 = load i32, ptr %5, align 4, !tbaa !8
  %34 = add nsw i32 %33, 1
  store i32 %34, ptr %5, align 4, !tbaa !8
  br label %14, !llvm.loop !157

35:                                               ; preds = %14
  %36 = load i32, ptr %8, align 4, !tbaa !8
  %37 = load ptr, ptr %3, align 8, !tbaa !33
  %38 = getelementptr inbounds nuw %struct.Vec_Mem_t_, ptr %37, i32 0, i32 7
  %39 = load ptr, ptr %38, align 8, !tbaa !55
  %40 = call i32 @Vec_IntSize(ptr noundef %39)
  %41 = urem i32 %36, %40
  call void @llvm.lifetime.end.p0(i64 4, ptr %8) #11
  call void @llvm.lifetime.end.p0(i64 8, ptr %7) #11
  call void @llvm.lifetime.end.p0(i64 4, ptr %6) #11
  call void @llvm.lifetime.end.p0(i64 4, ptr %5) #11
  ret i32 %41
}

; Function Attrs: inlinehint nounwind uwtable
define internal ptr @Vec_MemReadEntry(ptr noundef %0, i32 noundef %1) #2 {
  %3 = alloca ptr, align 8
  %4 = alloca i32, align 4
  store ptr %0, ptr %3, align 8, !tbaa !33
  store i32 %1, ptr %4, align 4, !tbaa !8
  %5 = load ptr, ptr %3, align 8, !tbaa !33
  %6 = getelementptr inbounds nuw %struct.Vec_Mem_t_, ptr %5, i32 0, i32 6
  %7 = load ptr, ptr %6, align 8, !tbaa !68
  %8 = load i32, ptr %4, align 4, !tbaa !8
  %9 = load ptr, ptr %3, align 8, !tbaa !33
  %10 = getelementptr inbounds nuw %struct.Vec_Mem_t_, ptr %9, i32 0, i32 2
  %11 = load i32, ptr %10, align 8, !tbaa !69
  %12 = ashr i32 %8, %11
  %13 = sext i32 %12 to i64
  %14 = getelementptr inbounds ptr, ptr %7, i64 %13
  %15 = load ptr, ptr %14, align 8, !tbaa !3
  %16 = load ptr, ptr %3, align 8, !tbaa !33
  %17 = getelementptr inbounds nuw %struct.Vec_Mem_t_, ptr %16, i32 0, i32 0
  %18 = load i32, ptr %17, align 8, !tbaa !70
  %19 = load i32, ptr %4, align 4, !tbaa !8
  %20 = load ptr, ptr %3, align 8, !tbaa !33
  %21 = getelementptr inbounds nuw %struct.Vec_Mem_t_, ptr %20, i32 0, i32 3
  %22 = load i32, ptr %21, align 4, !tbaa !71
  %23 = and i32 %19, %22
  %24 = mul nsw i32 %18, %23
  %25 = sext i32 %24 to i64
  %26 = getelementptr inbounds i64, ptr %15, i64 %25
  ret ptr %26
}

; Function Attrs: inlinehint nounwind uwtable
define internal i32 @Abc_Lit2Var(i32 noundef %0) #2 {
  %2 = alloca i32, align 4
  store i32 %0, ptr %2, align 4, !tbaa !8
  %3 = load i32, ptr %2, align 4, !tbaa !8
  %4 = ashr i32 %3, 1
  ret i32 %4
}

; Function Attrs: nounwind uwtable
define internal ptr @Vec_MemHashLookup(ptr noundef %0, ptr noundef %1) #0 {
  %3 = alloca ptr, align 8
  %4 = alloca ptr, align 8
  %5 = alloca ptr, align 8
  %6 = alloca ptr, align 8
  %7 = alloca i32, align 4
  store ptr %0, ptr %4, align 8, !tbaa !33
  store ptr %1, ptr %5, align 8, !tbaa !3
  call void @llvm.lifetime.start.p0(i64 8, ptr %6) #11
  %8 = load ptr, ptr %4, align 8, !tbaa !33
  %9 = getelementptr inbounds nuw %struct.Vec_Mem_t_, ptr %8, i32 0, i32 7
  %10 = load ptr, ptr %9, align 8, !tbaa !55
  %11 = load ptr, ptr %4, align 8, !tbaa !33
  %12 = load ptr, ptr %5, align 8, !tbaa !3
  %13 = call i32 @Vec_MemHashKey(ptr noundef %11, ptr noundef %12)
  %14 = call ptr @Vec_IntEntryP(ptr noundef %10, i32 noundef %13)
  store ptr %14, ptr %6, align 8, !tbaa !12
  br label %15

15:                                               ; preds = %35, %2
  %16 = load ptr, ptr %6, align 8, !tbaa !12
  %17 = load i32, ptr %16, align 4, !tbaa !8
  %18 = icmp ne i32 %17, -1
  br i1 %18, label %19, label %42

19:                                               ; preds = %15
  %20 = load ptr, ptr %4, align 8, !tbaa !33
  %21 = load ptr, ptr %6, align 8, !tbaa !12
  %22 = load i32, ptr %21, align 4, !tbaa !8
  %23 = call ptr @Vec_MemReadEntry(ptr noundef %20, i32 noundef %22)
  %24 = load ptr, ptr %5, align 8, !tbaa !3
  %25 = load ptr, ptr %4, align 8, !tbaa !33
  %26 = getelementptr inbounds nuw %struct.Vec_Mem_t_, ptr %25, i32 0, i32 0
  %27 = load i32, ptr %26, align 8, !tbaa !70
  %28 = sext i32 %27 to i64
  %29 = mul i64 8, %28
  %30 = call i32 @memcmp(ptr noundef %23, ptr noundef %24, i64 noundef %29) #14
  %31 = icmp ne i32 %30, 0
  br i1 %31, label %34, label %32

32:                                               ; preds = %19
  %33 = load ptr, ptr %6, align 8, !tbaa !12
  store ptr %33, ptr %3, align 8
  store i32 1, ptr %7, align 4
  br label %44

34:                                               ; preds = %19
  br label %35

35:                                               ; preds = %34
  %36 = load ptr, ptr %4, align 8, !tbaa !33
  %37 = getelementptr inbounds nuw %struct.Vec_Mem_t_, ptr %36, i32 0, i32 8
  %38 = load ptr, ptr %37, align 8, !tbaa !56
  %39 = load ptr, ptr %6, align 8, !tbaa !12
  %40 = load i32, ptr %39, align 4, !tbaa !8
  %41 = call ptr @Vec_IntEntryP(ptr noundef %38, i32 noundef %40)
  store ptr %41, ptr %6, align 8, !tbaa !12
  br label %15, !llvm.loop !137

42:                                               ; preds = %15
  %43 = load ptr, ptr %6, align 8, !tbaa !12
  store ptr %43, ptr %3, align 8
  store i32 1, ptr %7, align 4
  br label %44

44:                                               ; preds = %42, %32
  call void @llvm.lifetime.end.p0(i64 8, ptr %6) #11
  %45 = load ptr, ptr %3, align 8
  ret ptr %45
}

; Function Attrs: inlinehint nounwind uwtable
define internal ptr @If_CutTruthWR(ptr noundef %0, ptr noundef %1) #2 {
  %3 = alloca ptr, align 8
  %4 = alloca ptr, align 8
  store ptr %0, ptr %3, align 8, !tbaa !24
  store ptr %1, ptr %4, align 8, !tbaa !26
  %5 = load ptr, ptr %3, align 8, !tbaa !24
  %6 = getelementptr inbounds nuw %struct.If_Man_t_, ptr %5, i32 0, i32 57
  %7 = load ptr, ptr %4, align 8, !tbaa !26
  %8 = getelementptr inbounds nuw %struct.If_Cut_t_, ptr %7, i32 0, i32 7
  %9 = load i64, ptr %8, align 4
  %10 = lshr i64 %9, 24
  %11 = and i64 %10, 255
  %12 = trunc i64 %11 to i32
  %13 = zext i32 %12 to i64
  %14 = getelementptr inbounds nuw [16 x ptr], ptr %6, i64 0, i64 %13
  %15 = load ptr, ptr %14, align 8, !tbaa !33
  %16 = icmp ne ptr %15, null
  br i1 %16, label %17, label %34

17:                                               ; preds = %2
  %18 = load ptr, ptr %3, align 8, !tbaa !24
  %19 = getelementptr inbounds nuw %struct.If_Man_t_, ptr %18, i32 0, i32 57
  %20 = load ptr, ptr %4, align 8, !tbaa !26
  %21 = getelementptr inbounds nuw %struct.If_Cut_t_, ptr %20, i32 0, i32 7
  %22 = load i64, ptr %21, align 4
  %23 = lshr i64 %22, 24
  %24 = and i64 %23, 255
  %25 = trunc i64 %24 to i32
  %26 = zext i32 %25 to i64
  %27 = getelementptr inbounds nuw [16 x ptr], ptr %19, i64 0, i64 %26
  %28 = load ptr, ptr %27, align 8, !tbaa !33
  %29 = load ptr, ptr %4, align 8, !tbaa !26
  %30 = getelementptr inbounds nuw %struct.If_Cut_t_, ptr %29, i32 0, i32 4
  %31 = load i32, ptr %30, align 4, !tbaa !48
  %32 = call i32 @Abc_Lit2Var(i32 noundef %31)
  %33 = call ptr @Vec_MemReadEntry(ptr noundef %28, i32 noundef %32)
  br label %35

34:                                               ; preds = %2
  br label %35

35:                                               ; preds = %34, %17
  %36 = phi ptr [ %33, %17 ], [ null, %34 ]
  ret ptr %36
}

; Function Attrs: nounwind uwtable
define i32 @If_CutCheckTruth6(ptr noundef %0, ptr noundef %1) #0 {
  %3 = alloca i32, align 4
  %4 = alloca ptr, align 8
  %5 = alloca ptr, align 8
  store ptr %0, ptr %4, align 8, !tbaa !24
  store ptr %1, ptr %5, align 8, !tbaa !26
  %6 = load ptr, ptr %5, align 8, !tbaa !26
  %7 = getelementptr inbounds nuw %struct.If_Cut_t_, ptr %6, i32 0, i32 7
  %8 = load i64, ptr %7, align 4
  %9 = lshr i64 %8, 24
  %10 = and i64 %9, 255
  %11 = trunc i64 %10 to i32
  %12 = icmp ne i32 %11, 6
  br i1 %12, label %13, label %14

13:                                               ; preds = %2
  store i32 0, ptr %3, align 4
  br label %35

14:                                               ; preds = %2
  %15 = load ptr, ptr %4, align 8, !tbaa !24
  %16 = getelementptr inbounds nuw %struct.If_Man_t_, ptr %15, i32 0, i32 67
  %17 = load ptr, ptr %16, align 8, !tbaa !136
  %18 = icmp eq ptr %17, null
  br i1 %18, label %19, label %23

19:                                               ; preds = %14
  %20 = call ptr @If_DeriveHashTable6(i32 noundef 6, i64 noundef -81985529216486896)
  %21 = load ptr, ptr %4, align 8, !tbaa !24
  %22 = getelementptr inbounds nuw %struct.If_Man_t_, ptr %21, i32 0, i32 67
  store ptr %20, ptr %22, align 8, !tbaa !136
  br label %23

23:                                               ; preds = %19, %14
  %24 = load ptr, ptr %4, align 8, !tbaa !24
  %25 = getelementptr inbounds nuw %struct.If_Man_t_, ptr %24, i32 0, i32 67
  %26 = load ptr, ptr %25, align 8, !tbaa !136
  %27 = load ptr, ptr %4, align 8, !tbaa !24
  %28 = load ptr, ptr %5, align 8, !tbaa !26
  %29 = call ptr @If_CutTruthWR(ptr noundef %27, ptr noundef %28)
  %30 = call ptr @Vec_MemHashLookup(ptr noundef %26, ptr noundef %29)
  %31 = load i32, ptr %30, align 4, !tbaa !8
  %32 = icmp eq i32 %31, -1
  br i1 %32, label %33, label %34

33:                                               ; preds = %23
  store i32 0, ptr %3, align 4
  br label %35

34:                                               ; preds = %23
  store i32 1, ptr %3, align 4
  br label %35

35:                                               ; preds = %34, %33, %13
  %36 = load i32, ptr %3, align 4
  ret i32 %36
}