; Function Attrs: nounwind uwtable
define range(i32 0, 2) i32 @If_CutCheckTruth6(ptr noundef captures(none) %0, ptr noundef readonly captures(none) %1) local_unnamed_addr #2 {
  %3 = getelementptr inbounds nuw i8, ptr %1, i64 28
  %4 = load i64, ptr %3, align 4
  %.mask6 = and i64 %4, 4278190080
  %.not = icmp eq i64 %.mask6, 100663296
  br i1 %.not, label %5, label %Vec_MemHashLookup.exit

5:                                                ; preds = %2
  %6 = getelementptr inbounds nuw i8, ptr %0, i64 1984
  %7 = load ptr, ptr %6, align 8, !tbaa !142
  %8 = icmp eq ptr %7, null
  br i1 %8, label %9, label %11

9:                                                ; preds = %5
  %10 = tail call ptr @If_DeriveHashTable6(i32 noundef 6, i64 noundef -81985529216486896)
  store ptr %10, ptr %6, align 8, !tbaa !142
  %.pre = load i64, ptr %3, align 4
  br label %11

11:                                               ; preds = %9, %5
  %12 = phi i64 [ %.pre, %9 ], [ %4, %5 ]
  %13 = phi ptr [ %10, %9 ], [ %7, %5 ]
  %14 = getelementptr inbounds nuw i8, ptr %0, i64 1064
  %15 = lshr i64 %12, 24
  %16 = and i64 %15, 255
  %17 = getelementptr inbounds nuw [16 x ptr], ptr %14, i64 0, i64 %16
  %18 = load ptr, ptr %17, align 8, !tbaa !40
  %.not.i = icmp eq ptr %18, null
  br i1 %.not.i, label %If_CutTruthWR.exit, label %19

19:                                               ; preds = %11
  %20 = getelementptr inbounds nuw i8, ptr %1, i64 16
  %21 = load i32, ptr %20, align 4, !tbaa !42
  %22 = ashr i32 %21, 1
  %23 = getelementptr inbounds nuw i8, ptr %18, i64 24
  %24 = load ptr, ptr %23, align 8, !tbaa !43
  %25 = getelementptr inbounds nuw i8, ptr %18, i64 8
  %26 = load i32, ptr %25, align 8, !tbaa !46
  %27 = ashr i32 %22, %26
  %28 = sext i32 %27 to i64
  %29 = getelementptr inbounds ptr, ptr %24, i64 %28
  %30 = load ptr, ptr %29, align 8, !tbaa !47
  %31 = load i32, ptr %18, align 8, !tbaa !48
  %32 = getelementptr inbounds nuw i8, ptr %18, i64 12
  %33 = load i32, ptr %32, align 4, !tbaa !49
  %34 = and i32 %33, %22
  %35 = mul nsw i32 %34, %31
  %36 = sext i32 %35 to i64
  %37 = getelementptr inbounds i64, ptr %30, i64 %36
  br label %If_CutTruthWR.exit

If_CutTruthWR.exit:                               ; preds = %11, %19
  %38 = phi ptr [ %37, %19 ], [ null, %11 ]
  %39 = getelementptr inbounds nuw i8, ptr %13, i64 32
  %40 = load ptr, ptr %39, align 8, !tbaa !52
  %41 = load i32, ptr %13, align 8, !tbaa !48
  %42 = icmp sgt i32 %41, 0
  br i1 %42, label %.lr.ph.preheader.i.i, label %Vec_MemHashKey.exit.i

.lr.ph.preheader.i.i:                             ; preds = %If_CutTruthWR.exit
  %43 = shl nuw i32 %41, 1
  %smax.i.i = tail call i32 @llvm.smax.i32(i32 %43, i32 1)
  %wide.trip.count.i.i = zext nneg i32 %smax.i.i to i64
  br label %.lr.ph.i.i

.lr.ph.i.i:                                       ; preds = %.lr.ph.i.i, %.lr.ph.preheader.i.i
  %indvars.iv.i.i = phi i64 [ 0, %.lr.ph.preheader.i.i ], [ %indvars.iv.next.i.i, %.lr.ph.i.i ]
  %.012.i.i = phi i32 [ 0, %.lr.ph.preheader.i.i ], [ %50, %.lr.ph.i.i ]
  %44 = getelementptr inbounds nuw i32, ptr %38, i64 %indvars.iv.i.i
  %45 = load i32, ptr %44, align 4, !tbaa !7
  %46 = and i64 %indvars.iv.i.i, 7
  %47 = getelementptr inbounds nuw [8 x i32], ptr @Vec_MemHashKey.s_Primes, i64 0, i64 %46
  %48 = load i32, ptr %47, align 4, !tbaa !7
  %49 = mul i32 %48, %45
  %50 = add i32 %49, %.012.i.i
  %indvars.iv.next.i.i = add nuw nsw i64 %indvars.iv.i.i, 1
  %exitcond.not.i.i = icmp eq i64 %indvars.iv.next.i.i, %wide.trip.count.i.i
  br i1 %exitcond.not.i.i, label %Vec_MemHashKey.exit.i, label %.lr.ph.i.i, !llvm.loop !61

Vec_MemHashKey.exit.i:                            ; preds = %.lr.ph.i.i, %If_CutTruthWR.exit
  %.0.lcssa.i.i = phi i32 [ 0, %If_CutTruthWR.exit ], [ %50, %.lr.ph.i.i ]
  %51 = getelementptr i8, ptr %40, i64 4
  %.val.i.i = load i32, ptr %51, align 4, !tbaa !53
  %52 = urem i32 %.0.lcssa.i.i, %.val.i.i
  %53 = getelementptr i8, ptr %40, i64 8
  %.val.i = load ptr, ptr %53, align 8, !tbaa !59
  %54 = sext i32 %52 to i64
  %55 = getelementptr inbounds i32, ptr %.val.i, i64 %54
  %56 = load i32, ptr %55, align 4, !tbaa !7
  %.not17.i = icmp eq i32 %56, -1
  br i1 %.not17.i, label %Vec_MemHashLookup.exit, label %.lr.ph.i

.lr.ph.i:                                         ; preds = %Vec_MemHashKey.exit.i
  %57 = getelementptr inbounds nuw i8, ptr %13, i64 24
  %58 = load ptr, ptr %57, align 8, !tbaa !43
  %59 = getelementptr inbounds nuw i8, ptr %13, i64 8
  %60 = load i32, ptr %59, align 8, !tbaa !46
  %61 = getelementptr inbounds nuw i8, ptr %13, i64 12
  %62 = load i32, ptr %61, align 4, !tbaa !49
  %63 = sext i32 %41 to i64
  %64 = shl nsw i64 %63, 3
  %65 = ashr i32 %56, %60
  %66 = sext i32 %65 to i64
  %67 = getelementptr inbounds ptr, ptr %58, i64 %66
  %68 = load ptr, ptr %67, align 8, !tbaa !47
  %69 = and i32 %56, %62
  %70 = mul nsw i32 %69, %41
  %71 = sext i32 %70 to i64
  %72 = getelementptr inbounds i64, ptr %68, i64 %71
  %bcmp.i8 = tail call i32 @bcmp(ptr %72, ptr readonly %38, i64 %64)
  %.not15.i9 = icmp eq i32 %bcmp.i8, 0
  br i1 %.not15.i9, label %Vec_MemHashLookup.exit, label %.lr.ph

.lr.ph:                                           ; preds = %.lr.ph.i
  %73 = getelementptr inbounds nuw i8, ptr %13, i64 40
  %74 = load ptr, ptr %73, align 8, !tbaa !60
  %75 = getelementptr i8, ptr %74, i64 8
  %.val16.i = load ptr, ptr %75, align 8, !tbaa !59
  br label %85

76:                                               ; preds = %85
  %77 = ashr i32 %89, %60
  %78 = sext i32 %77 to i64
  %79 = getelementptr inbounds ptr, ptr %58, i64 %78
  %80 = load ptr, ptr %79, align 8, !tbaa !47
  %81 = and i32 %89, %62
  %82 = mul nsw i32 %81, %41
  %83 = sext i32 %82 to i64
  %84 = getelementptr inbounds i64, ptr %80, i64 %83
  %bcmp.i = tail call i32 @bcmp(ptr %84, ptr readonly %38, i64 %64)
  %.not15.i = icmp eq i32 %bcmp.i, 0
  br i1 %.not15.i, label %Vec_MemHashLookup.exit.loopexit, label %85, !llvm.loop !62

85:                                               ; preds = %.lr.ph, %76
  %86 = phi i32 [ %56, %.lr.ph ], [ %89, %76 ]
  %87 = sext i32 %86 to i64
  %88 = getelementptr inbounds i32, ptr %.val16.i, i64 %87
  %89 = load i32, ptr %88, align 4, !tbaa !7
  %.not.i7 = icmp eq i32 %89, -1
  br i1 %.not.i7, label %Vec_MemHashLookup.exit.loopexit, label %76, !llvm.loop !62

Vec_MemHashLookup.exit.loopexit:                  ; preds = %76, %85
  %90 = icmp ne i32 %89, -1
  %91 = zext i1 %90 to i32
  br label %Vec_MemHashLookup.exit

Vec_MemHashLookup.exit:                           ; preds = %Vec_MemHashKey.exit.i, %.lr.ph.i, %Vec_MemHashLookup.exit.loopexit, %2
  %.0 = phi i32 [ 0, %2 ], [ 0, %Vec_MemHashKey.exit.i ], [ 1, %.lr.ph.i ], [ %91, %Vec_MemHashLookup.exit.loopexit ]
  ret i32 %.0
}